; Function Attrs: mustprogress uwtable
define void @_ZN5nblib23GmxNBForceCalculatorCpu7CpuImpl7computeEN3gmx8ArrayRefIKNS2_11BasicVectorIfEEEERKNS_3BoxENS3_IS5_EE(ptr noundef nonnull align 8 dereferenceable(2584) %0, ptr %1, ptr %2, ptr noundef nonnull align 4 dereferenceable(36) %3, ptr %4, ptr %5) local_unnamed_addr #0 align 2 {
  %7 = alloca %"class.gmx::ArrayRef.0", align 8
  %8 = alloca %"class.gmx::ArrayRef.0", align 8
  %9 = ptrtoint ptr %2 to i64
  %10 = ptrtoint ptr %1 to i64
  %11 = sub i64 %9, %10
  %12 = getelementptr inbounds i8, ptr %1, i64 %11
  %13 = ptrtoint ptr %5 to i64
  %14 = ptrtoint ptr %4 to i64
  %15 = sub i64 %13, %14
  %16 = getelementptr inbounds i8, ptr %4, i64 %15
  call void @llvm.memset.p0.i64(ptr noundef nonnull align 8 dereferenceable(16) %7, i8 0, i64 16, i1 false)
  call void @llvm.memset.p0.i64(ptr noundef nonnull align 8 dereferenceable(16) %8, i8 0, i64 16, i1 false)
  tail call void @_ZN5nblib23GmxNBForceCalculatorCpu7CpuImpl7computeEN3gmx8ArrayRefIKNS2_11BasicVectorIfEEEERKNS_3BoxENS3_IS5_EENS3_IfEESC_(ptr noundef nonnull align 8 dereferenceable(2584) %0, ptr %1, ptr %12, ptr noundef nonnull align 4 dereferenceable(36) %3, ptr %4, ptr %16, ptr noundef nonnull byval(%"class.gmx::ArrayRef.0") align 8 %7, ptr noundef nonnull byval(%"class.gmx::ArrayRef.0") align 8 %8)
  ret void
}